; Function Attrs: mustprogress nounwind uwtable
define hidden noundef ptr @_ZNK6Symbol22as_klass_external_nameEv(ptr nocapture noundef nonnull readonly align 4 dereferenceable(8) %0) local_unnamed_addr #1 align 2 {
  %2 = getelementptr inbounds i8, ptr %0, i64 4
  %3 = load i16, ptr %2, align 4
  %4 = zext i16 %3 to i64
  %5 = add nuw nsw i64 %4, 1
  %6 = tail call noundef ptr @_Z23resource_allocate_bytesmN17AllocFailStrategy13AllocFailEnumE(i64 noundef %5, i32 noundef 0) #17
  %7 = load i16, ptr %2, align 4
  %8 = tail call i16 @llvm.umin.i16(i16 %3, i16 %7)
  %.not.i.i = icmp eq i16 %8, 0
  br i1 %.not.i.i, label %_ZNK6Symbol11as_C_stringEv.exit, label %.lr.ph.i.i

.lr.ph.i.i:                                       ; preds = %1
  %9 = getelementptr inbounds i8, ptr %0, i64 6
  %wide.trip.count.i.i = zext i16 %8 to i64
  br label %10

10:                                               ; preds = %10, %.lr.ph.i.i
  %indvars.iv.i.i = phi i64 [ 0, %.lr.ph.i.i ], [ %indvars.iv.next.i.i, %10 ]
  %11 = getelementptr inbounds i8, ptr %9, i64 %indvars.iv.i.i
  %12 = load i8, ptr %11, align 1
  %13 = getelementptr inbounds i8, ptr %6, i64 %indvars.iv.i.i
  store i8 %12, ptr %13, align 1
  %indvars.iv.next.i.i = add nuw nsw i64 %indvars.iv.i.i, 1
  %exitcond.not.i.i = icmp eq i64 %indvars.iv.next.i.i, %wide.trip.count.i.i
  br i1 %exitcond.not.i.i, label %_ZNK6Symbol11as_C_stringEv.exit, label %10, !llvm.loop !8

_ZNK6Symbol11as_C_stringEv.exit:                  ; preds = %10, %1
  %.pre-phi.i.i = phi i64 [ 0, %1 ], [ %wide.trip.count.i.i, %10 ]
  %14 = getelementptr inbounds i8, ptr %6, i64 %.pre-phi.i.i
  store i8 0, ptr %14, align 1
  %15 = tail call i64 @strlen(ptr noundef nonnull dereferenceable(1) %6) #18
  %16 = trunc i64 %15 to i32
  %17 = icmp sgt i32 %16, 0
  br i1 %17, label %.lr.ph.preheader, label %._crit_edge

.lr.ph.preheader:                                 ; preds = %_ZNK6Symbol11as_C_stringEv.exit
  %wide.trip.count = and i64 %15, 2147483647
  br label %.lr.ph

.lr.ph:                                           ; preds = %.lr.ph.preheader, %22
  %indvars.iv = phi i64 [ 0, %.lr.ph.preheader ], [ %indvars.iv.next, %22 ]
  %18 = getelementptr inbounds i8, ptr %6, i64 %indvars.iv
  %19 = load i8, ptr %18, align 1
  %20 = icmp eq i8 %19, 47
  br i1 %20, label %21, label %22

21:                                               ; preds = %.lr.ph
  store i8 46, ptr %18, align 1
  br label %22

22:                                               ; preds = %.lr.ph, %21
  %indvars.iv.next = add nuw nsw i64 %indvars.iv, 1
  %exitcond.not = icmp eq i64 %indvars.iv.next, %wide.trip.count
  br i1 %exitcond.not, label %._crit_edge, label %.lr.ph, !llvm.loop !10

._crit_edge:                                      ; preds = %22, %_ZNK6Symbol11as_C_stringEv.exit
  ret ptr %6
}